target datalayout = "e-m:e-p270:32:32-p271:32:32-p272:64:64-i64:64-i128:128-f80:128-n8:16:32:64-S128"
target triple = "x86_64-pc-linux-gnu"

%"class.boost::container::pmr::monotonic_buffer_resource" = type { %"class.boost::container::pmr::memory_resource", %"class.boost::container::pmr::block_slist", ptr, i64, i64, ptr, i64 }
%"class.boost::container::pmr::memory_resource" = type { ptr }
%"class.boost::container::pmr::block_slist" = type { %"class.boost::container::pmr::block_slist_base", ptr }
%"class.boost::container::pmr::block_slist_base" = type { %"struct.boost::container::pmr::slist_node" }
%"struct.boost::container::pmr::slist_node" = type { ptr }

; Function Attrs: mustprogress nounwind uwtable
define linkonce_odr hidden void @_ZN5boost9container3pmr17slist_node_traits8set_nextERKPNS1_10slist_nodeES6_(ptr noundef nonnull align 8 dereferenceable(8) %0, ptr noundef nonnull align 8 dereferenceable(8) %1) #0 comdat align 2 {
  %3 = alloca ptr, align 8
  %4 = alloca ptr, align 8
  store ptr %0, ptr %3, align 8, !tbaa !3
  store ptr %1, ptr %4, align 8, !tbaa !3
  %5 = load ptr, ptr %4, align 8, !tbaa !3
  %6 = load ptr, ptr %5, align 8, !tbaa !3
  %7 = load ptr, ptr %3, align 8, !tbaa !3
  %8 = load ptr, ptr %7, align 8, !tbaa !3
  %9 = getelementptr inbounds nuw %"struct.boost::container::pmr::slist_node", ptr %8, i32 0, i32 0
  store ptr %6, ptr %9, align 8, !tbaa !22
  ret void
}

; Function Attrs: inlinehint mustprogress nounwind uwtable
define linkonce_odr hidden void @_ZN5boost9intrusive23linear_slist_algorithmsINS_9container3pmr17slist_node_traitsEE11init_headerEPNS3_10slist_nodeE(ptr noundef %0) #2 comdat align 2 personality ptr @__gxx_personality_v0 {
  %2 = alloca ptr, align 8
  %3 = alloca ptr, align 8
  store ptr %0, ptr %2, align 8, !tbaa !3
  call void @llvm.lifetime.start.p0(i64 8, ptr %3) #11
  store ptr null, ptr %3, align 8, !tbaa !3
  invoke void @_ZN5boost9container3pmr17slist_node_traits8set_nextERKPNS1_10slist_nodeES6_(ptr noundef nonnull align 8 dereferenceable(8) %2, ptr noundef nonnull align 8 dereferenceable(8) %3)
          to label %4 unwind label %5

4:                                                ; preds = %1
  call void @llvm.lifetime.end.p0(i64 8, ptr %3) #11
  ret void

5:                                                ; preds = %1
  %6 = landingpad { ptr, i32 }
          catch ptr null
  %7 = extractvalue { ptr, i32 } %6, 0
  call void @__clang_call_terminate(ptr %7) #12
  unreachable
}

; Function Attrs: mustprogress nounwind uwtable
define linkonce_odr hidden void @_ZN5boost9container3pmr16block_slist_baseINS1_18block_slist_headerEEC2Ev(ptr noundef nonnull align 8 dereferenceable(8) %0) unnamed_addr #0 comdat align 2 {
  %2 = alloca ptr, align 8
  store ptr %0, ptr %2, align 8, !tbaa !3
  %3 = load ptr, ptr %2, align 8
  %4 = getelementptr inbounds nuw %"class.boost::container::pmr::block_slist_base", ptr %3, i32 0, i32 0
  call void @_ZN5boost9intrusive23linear_slist_algorithmsINS_9container3pmr17slist_node_traitsEE11init_headerEPNS3_10slist_nodeE(ptr noundef %4) #11
  ret void
}

; Function Attrs: noinline noreturn nounwind uwtable
define linkonce_odr hidden void @__clang_call_terminate(ptr noundef %0) #5 comdat {
  %2 = call ptr @__cxa_begin_catch(ptr %0) #11
  call void @_ZSt9terminatev() #12
  unreachable
}

; Function Attrs: mustprogress uwtable
define linkonce_odr hidden void @_ZN5boost9container3pmr11block_slistC2ERNS1_15memory_resourceE(ptr noundef nonnull align 8 dereferenceable(16) %0, ptr noundef nonnull align 8 dereferenceable(8) %1) unnamed_addr #1 comdat align 2 {
  %3 = alloca ptr, align 8
  %4 = alloca ptr, align 8
  store ptr %0, ptr %3, align 8, !tbaa !3
  store ptr %1, ptr %4, align 8, !tbaa !3
  %5 = load ptr, ptr %3, align 8
  call void @_ZN5boost9container3pmr16block_slist_baseINS1_18block_slist_headerEEC2Ev(ptr noundef nonnull align 8 dereferenceable(8) %5)
  %6 = getelementptr inbounds nuw %"class.boost::container::pmr::block_slist", ptr %5, i32 0, i32 1
  %7 = load ptr, ptr %4, align 8, !tbaa !3
  store ptr %7, ptr %6, align 8, !tbaa !3
  ret void
}

; Function Attrs: inlinehint mustprogress nounwind uwtable
define linkonce_odr hidden void @_ZN5boost9container3pmr15memory_resourceC2Ev(ptr noundef nonnull align 8 dereferenceable(8) %0) unnamed_addr #2 comdat align 2 {
  %2 = alloca ptr, align 8
  store ptr %0, ptr %2, align 8, !tbaa !3
  %3 = load ptr, ptr %2, align 8
  store ptr getelementptr inbounds inrange(-16, 40) ({ [7 x ptr] }, ptr @_ZTVN5boost9container3pmr15memory_resourceE, i32 0, i32 0, i32 2), ptr %3, align 8, !tbaa !15
  ret void
}

; Function Attrs: mustprogress nounwind uwtable
define void @_ZN5boost9container3pmr25monotonic_buffer_resourceC2EPNS1_15memory_resourceE(ptr noundef nonnull align 8 dereferenceable(64) %0, ptr noundef %1) unnamed_addr #0 align 2 personality ptr @__gxx_personality_v0 {
  %3 = alloca ptr, align 8
  %4 = alloca ptr, align 8
  store ptr %0, ptr %3, align 8, !tbaa !3
  store ptr %1, ptr %4, align 8, !tbaa !3
  %5 = load ptr, ptr %3, align 8
  call void @_ZN5boost9container3pmr15memory_resourceC2Ev(ptr noundef nonnull align 8 dereferenceable(8) %5) #11
  store ptr getelementptr inbounds inrange(-16, 40) ({ [7 x ptr] }, ptr @_ZTVN5boost9container3pmr25monotonic_buffer_resourceE, i32 0, i32 0, i32 2), ptr %5, align 8, !tbaa !15
  %6 = getelementptr inbounds nuw %"class.boost::container::pmr::monotonic_buffer_resource", ptr %5, i32 0, i32 1
  %7 = load ptr, ptr %4, align 8, !tbaa !3
  %8 = icmp ne ptr %7, null
  br i1 %8, label %9, label %11

9:                                                ; preds = %2
  %10 = load ptr, ptr %4, align 8, !tbaa !3
  br label %13

11:                                               ; preds = %2
  %12 = call noundef ptr @_ZN5boost9container3pmr20get_default_resourceEv() #11
  br label %13

13:                                               ; preds = %11, %9
  %14 = phi ptr [ %10, %9 ], [ %12, %11 ]
  invoke void @_ZN5boost9container3pmr11block_slistC2ERNS1_15memory_resourceE(ptr noundef nonnull align 8 dereferenceable(16) %6, ptr noundef nonnull align 8 dereferenceable(8) %14)
          to label %15 unwind label %21

15:                                               ; preds = %13
  %16 = getelementptr inbounds nuw %"class.boost::container::pmr::monotonic_buffer_resource", ptr %5, i32 0, i32 2
  store ptr null, ptr %16, align 8, !tbaa !17
  %17 = getelementptr inbounds nuw %"class.boost::container::pmr::monotonic_buffer_resource", ptr %5, i32 0, i32 3
  store i64 0, ptr %17, align 8, !tbaa !18
  %18 = getelementptr inbounds nuw %"class.boost::container::pmr::monotonic_buffer_resource", ptr %5, i32 0, i32 4
  store i64 256, ptr %18, align 8, !tbaa !7
  %19 = getelementptr inbounds nuw %"class.boost::container::pmr::monotonic_buffer_resource", ptr %5, i32 0, i32 5
  store ptr null, ptr %19, align 8, !tbaa !19
  %20 = getelementptr inbounds nuw %"class.boost::container::pmr::monotonic_buffer_resource", ptr %5, i32 0, i32 6
  store i64 0, ptr %20, align 8, !tbaa !20
  ret void

21:                                               ; preds = %13
  %22 = landingpad { ptr, i32 }
          catch ptr null
  %23 = extractvalue { ptr, i32 } %22, 0
  call void @__clang_call_terminate(ptr %23) #12
  unreachable
}